; Function Attrs: nounwind uwtable
define i32 @EVP_PKEY_todata(ptr noundef %0, i32 noundef %1, ptr noundef %2) local_unnamed_addr #0 {
  %4 = alloca %struct.fake_import_data_st, align 8
  %5 = icmp eq ptr %2, null
  br i1 %5, label %EVP_PKEY_export.exit, label %6

6:                                                ; preds = %3
  %7 = icmp eq ptr %0, null
  br i1 %7, label %8, label %9

8:                                                ; preds = %6
  tail call void @ERR_new() #6
  tail call void @ERR_set_debug(ptr noundef nonnull @.str, i32 noundef 442, ptr noundef nonnull @__func__.EVP_PKEY_export) #6
  tail call void (i32, i32, ptr, ...) @ERR_set_error(i32 noundef 6, i32 noundef 786690, ptr noundef null) #6
  br label %EVP_PKEY_export.exit

9:                                                ; preds = %6
  %10 = load i32, ptr %0, align 8, !tbaa !39
  %.not.i = icmp eq i32 %10, 0
  br i1 %.not.i, label %22, label %11

11:                                               ; preds = %9
  %12 = getelementptr inbounds nuw i8, ptr %0, i64 96
  %13 = load ptr, ptr %12, align 8, !tbaa !47
  %14 = icmp eq ptr %13, null
  br i1 %14, label %15, label %22

15:                                               ; preds = %11
  call void @llvm.lifetime.start.p0(i64 16, ptr nonnull %4) #6
  store ptr @ossl_pkey_todata_cb, ptr %4, align 8, !tbaa !52
  %16 = getelementptr inbounds nuw i8, ptr %4, i64 8
  store ptr %2, ptr %16, align 8, !tbaa !54
  %17 = getelementptr inbounds nuw i8, ptr %0, i64 8
  %18 = load ptr, ptr %17, align 8, !tbaa !55
  %19 = getelementptr inbounds nuw i8, ptr %18, i64 288
  %20 = load ptr, ptr %19, align 8, !tbaa !56
  %21 = call i32 %20(ptr noundef nonnull %0, ptr noundef nonnull %4, ptr noundef nonnull @pkey_fake_import, ptr noundef null, ptr noundef null) #6
  call void @llvm.lifetime.end.p0(i64 16, ptr nonnull %4) #6
  br label %EVP_PKEY_export.exit

22:                                               ; preds = %11, %9
  %23 = tail call i32 @evp_keymgmt_util_export(ptr noundef nonnull %0, i32 noundef %1, ptr noundef nonnull @ossl_pkey_todata_cb, ptr noundef nonnull %2) #6
  br label %EVP_PKEY_export.exit

EVP_PKEY_export.exit:                             ; preds = %22, %15, %8, %3
  %.0 = phi i32 [ 0, %3 ], [ 0, %8 ], [ %21, %15 ], [ %23, %22 ]
  ret i32 %.0
}